target datalayout = "e-m:e-p270:32:32-p271:32:32-p272:64:64-i64:64-i128:128-f80:128-n8:16:32:64-S128"
target triple = "x86_64-pc-linux-gnu"

%struct.Rtm_Man_t_ = type { ptr, ptr, ptr, ptr, ptr, i32, i32 }
%struct.Rtm_Obj_t_ = type { ptr, i32, i32, i32, i32, [0 x ptr] }

; Function Attrs: inlinehint nounwind uwtable
define internal i32 @Rtm_InitGetTwo(ptr noundef %0, i32 noundef %1) #5 {
  %3 = alloca ptr, align 8
  %4 = alloca i32, align 4
  store ptr %0, ptr %3, align 8, !tbaa !82
  store i32 %1, ptr %4, align 4, !tbaa !21
  %5 = load ptr, ptr %3, align 8, !tbaa !82
  %6 = load i32, ptr %4, align 4, !tbaa !21
  %7 = ashr i32 %6, 4
  %8 = sext i32 %7 to i64
  %9 = getelementptr inbounds i32, ptr %5, i64 %8
  %10 = load i32, ptr %9, align 4, !tbaa !21
  %11 = load i32, ptr %4, align 4, !tbaa !21
  %12 = and i32 %11, 15
  %13 = shl i32 %12, 1
  %14 = lshr i32 %10, %13
  %15 = and i32 %14, 3
  ret i32 %15
}

; Function Attrs: inlinehint nounwind uwtable
define internal void @Rtm_InitXorTwo(ptr noundef %0, i32 noundef %1, i32 noundef %2) #5 {
  %4 = alloca ptr, align 8
  %5 = alloca i32, align 4
  %6 = alloca i32, align 4
  store ptr %0, ptr %4, align 8, !tbaa !82
  store i32 %1, ptr %5, align 4, !tbaa !21
  store i32 %2, ptr %6, align 4, !tbaa !21
  %7 = load i32, ptr %6, align 4, !tbaa !21
  %8 = load i32, ptr %5, align 4, !tbaa !21
  %9 = and i32 %8, 15
  %10 = shl i32 %9, 1
  %11 = shl i32 %7, %10
  %12 = load ptr, ptr %4, align 8, !tbaa !82
  %13 = load i32, ptr %5, align 4, !tbaa !21
  %14 = ashr i32 %13, 4
  %15 = sext i32 %14 to i64
  %16 = getelementptr inbounds i32, ptr %12, i64 %15
  %17 = load i32, ptr %16, align 4, !tbaa !21
  %18 = xor i32 %17, %11
  store i32 %18, ptr %16, align 4, !tbaa !21
  ret void
}

; Function Attrs: inlinehint nounwind uwtable
define internal i32 @Rtm_ObjGetLast2(ptr noundef %0, ptr noundef %1) #5 {
  %3 = alloca ptr, align 8
  %4 = alloca ptr, align 8
  store ptr %0, ptr %3, align 8, !tbaa !3
  store ptr %1, ptr %4, align 8, !tbaa !8
  %5 = load ptr, ptr %3, align 8, !tbaa !3
  %6 = getelementptr inbounds nuw %struct.Rtm_Man_t_, ptr %5, i32 0, i32 4
  %7 = load ptr, ptr %6, align 8, !tbaa !39
  %8 = load ptr, ptr %4, align 8, !tbaa !8
  %9 = load i32, ptr %8, align 8
  %10 = lshr i32 %9, 12
  %11 = zext i32 %10 to i64
  %12 = trunc i64 %11 to i32
  %13 = sext i32 %12 to i64
  %14 = getelementptr inbounds i32, ptr %7, i64 %13
  %15 = load ptr, ptr %4, align 8, !tbaa !8
  %16 = load i32, ptr %15, align 8
  %17 = and i32 %16, 4095
  %18 = zext i32 %17 to i64
  %19 = trunc i64 %18 to i32
  %20 = sub nsw i32 %19, 1
  %21 = call i32 @Rtm_InitGetTwo(ptr noundef %14, i32 noundef %20)
  ret i32 %21
}

; Function Attrs: nounwind uwtable
define internal void @Rtm_ObjTransferToSmall(ptr noundef %0, ptr noundef %1) #0 {
  %3 = alloca ptr, align 8
  %4 = alloca ptr, align 8
  store ptr %0, ptr %3, align 8, !tbaa !3
  store ptr %1, ptr %4, align 8, !tbaa !8
  %5 = load ptr, ptr %3, align 8, !tbaa !3
  %6 = getelementptr inbounds nuw %struct.Rtm_Man_t_, ptr %5, i32 0, i32 4
  %7 = load ptr, ptr %6, align 8, !tbaa !39
  %8 = load ptr, ptr %4, align 8, !tbaa !8
  %9 = load i32, ptr %8, align 8
  %10 = lshr i32 %9, 12
  %11 = zext i32 %10 to i64
  %12 = getelementptr inbounds nuw i32, ptr %7, i64 %11
  %13 = load i32, ptr %12, align 4, !tbaa !21
  %14 = zext i32 %13 to i64
  %15 = load ptr, ptr %4, align 8, !tbaa !8
  %16 = trunc i64 %14 to i32
  %17 = load i32, ptr %15, align 8
  %18 = and i32 %16, 1048575
  %19 = shl i32 %18, 12
  %20 = and i32 %17, 4095
  %21 = or i32 %20, %19
  store i32 %21, ptr %15, align 8
  ret void
}

; Function Attrs: inlinehint nounwind uwtable
define internal i32 @Rtm_ObjRemLast1(ptr noundef %0) #5 {
  %2 = alloca ptr, align 8
  %3 = alloca i32, align 4
  store ptr %0, ptr %2, align 8, !tbaa !8
  call void @llvm.lifetime.start.p0(i64 4, ptr %3) #11
  %4 = load ptr, ptr %2, align 8, !tbaa !8
  %5 = load i32, ptr %4, align 8
  %6 = lshr i32 %5, 12
  %7 = zext i32 %6 to i64
  %8 = trunc i64 %7 to i32
  %9 = load ptr, ptr %2, align 8, !tbaa !8
  %10 = load i32, ptr %9, align 8
  %11 = and i32 %10, 4095
  %12 = zext i32 %11 to i64
  %13 = trunc i64 %12 to i32
  %14 = sub nsw i32 %13, 1
  %15 = shl i32 %14, 1
  %16 = ashr i32 %8, %15
  %17 = and i32 %16, 3
  store i32 %17, ptr %3, align 4, !tbaa !21
  %18 = load i32, ptr %3, align 4, !tbaa !21
  %19 = load ptr, ptr %2, align 8, !tbaa !8
  %20 = load i32, ptr %19, align 8
  %21 = and i32 %20, 4095
  %22 = zext i32 %21 to i64
  %23 = trunc i64 %22 to i32
  %24 = sub nsw i32 %23, 1
  %25 = shl i32 %24, 1
  %26 = shl i32 %18, %25
  %27 = load ptr, ptr %2, align 8, !tbaa !8
  %28 = load i32, ptr %27, align 8
  %29 = lshr i32 %28, 12
  %30 = zext i32 %29 to i64
  %31 = trunc i64 %30 to i32
  %32 = xor i32 %31, %26
  %33 = sext i32 %32 to i64
  %34 = trunc i64 %33 to i32
  %35 = load i32, ptr %27, align 8
  %36 = and i32 %34, 1048575
  %37 = shl i32 %36, 12
  %38 = and i32 %35, 4095
  %39 = or i32 %38, %37
  store i32 %39, ptr %27, align 8
  %40 = load ptr, ptr %2, align 8, !tbaa !8
  %41 = load i32, ptr %40, align 8
  %42 = and i32 %41, 4095
  %43 = zext i32 %42 to i64
  %44 = add i64 %43, -1
  %45 = trunc i64 %44 to i32
  %46 = load i32, ptr %40, align 8
  %47 = and i32 %45, 4095
  %48 = and i32 %46, -4096
  %49 = or i32 %48, %47
  store i32 %49, ptr %40, align 8
  %50 = load i32, ptr %3, align 4, !tbaa !21
  call void @llvm.lifetime.end.p0(i64 4, ptr %3) #11
  ret i32 %50
}

; Function Attrs: inlinehint nounwind uwtable
define internal i32 @Rtm_ObjRemLast2(ptr noundef %0, ptr noundef %1) #5 {
  %3 = alloca ptr, align 8
  %4 = alloca ptr, align 8
  %5 = alloca i32, align 4
  store ptr %0, ptr %3, align 8, !tbaa !3
  store ptr %1, ptr %4, align 8, !tbaa !8
  call void @llvm.lifetime.start.p0(i64 4, ptr %5) #11
  %6 = load ptr, ptr %3, align 8, !tbaa !3
  %7 = load ptr, ptr %4, align 8, !tbaa !8
  %8 = call i32 @Rtm_ObjGetLast2(ptr noundef %6, ptr noundef %7)
  store i32 %8, ptr %5, align 4, !tbaa !21
  %9 = load ptr, ptr %3, align 8, !tbaa !3
  %10 = getelementptr inbounds nuw %struct.Rtm_Man_t_, ptr %9, i32 0, i32 4
  %11 = load ptr, ptr %10, align 8, !tbaa !39
  %12 = load ptr, ptr %4, align 8, !tbaa !8
  %13 = load i32, ptr %12, align 8
  %14 = lshr i32 %13, 12
  %15 = zext i32 %14 to i64
  %16 = trunc i64 %15 to i32
  %17 = sext i32 %16 to i64
  %18 = getelementptr inbounds i32, ptr %11, i64 %17
  %19 = load ptr, ptr %4, align 8, !tbaa !8
  %20 = load i32, ptr %19, align 8
  %21 = and i32 %20, 4095
  %22 = zext i32 %21 to i64
  %23 = trunc i64 %22 to i32
  %24 = sub nsw i32 %23, 1
  %25 = load i32, ptr %5, align 4, !tbaa !21
  call void @Rtm_InitXorTwo(ptr noundef %18, i32 noundef %24, i32 noundef %25)
  %26 = load ptr, ptr %4, align 8, !tbaa !8
  %27 = load i32, ptr %26, align 8
  %28 = and i32 %27, 4095
  %29 = zext i32 %28 to i64
  %30 = add i64 %29, -1
  %31 = trunc i64 %30 to i32
  %32 = load i32, ptr %26, align 8
  %33 = and i32 %31, 4095
  %34 = and i32 %32, -4096
  %35 = or i32 %34, %33
  store i32 %35, ptr %26, align 8
  %36 = load i32, ptr %5, align 4, !tbaa !21
  call void @llvm.lifetime.end.p0(i64 4, ptr %5) #11
  ret i32 %36
}

; Function Attrs: inlinehint nounwind uwtable
define internal ptr @Rtm_ObjEdge(ptr noundef %0, i32 noundef %1) #5 {
  %3 = alloca ptr, align 8
  %4 = alloca i32, align 4
  store ptr %0, ptr %3, align 8, !tbaa !40
  store i32 %1, ptr %4, align 4, !tbaa !21
  %5 = load ptr, ptr %3, align 8, !tbaa !40
  %6 = getelementptr inbounds nuw %struct.Rtm_Obj_t_, ptr %5, i32 0, i32 5
  %7 = getelementptr inbounds [0 x ptr], ptr %6, i64 0, i64 0
  %8 = load i32, ptr %4, align 4, !tbaa !21
  %9 = mul nsw i32 2, %8
  %10 = sext i32 %9 to i64
  %11 = getelementptr inbounds ptr, ptr %7, i64 %10
  %12 = getelementptr inbounds ptr, ptr %11, i64 1
  ret ptr %12
}

; Function Attrs: nounwind uwtable
define internal i32 @Rtm_ObjRemLast(ptr noundef %0, ptr noundef %1) #0 {
  %3 = alloca ptr, align 8
  %4 = alloca ptr, align 8
  %5 = alloca i32, align 4
  store ptr %0, ptr %3, align 8, !tbaa !3
  store ptr %1, ptr %4, align 8, !tbaa !8
  call void @llvm.lifetime.start.p0(i64 4, ptr %5) #11
  %6 = load ptr, ptr %4, align 8, !tbaa !8
  %7 = load i32, ptr %6, align 8
  %8 = and i32 %7, 4095
  %9 = zext i32 %8 to i64
  %10 = trunc i64 %9 to i32
  %11 = icmp sgt i32 %10, 10
  br i1 %11, label %12, label %16

12:                                               ; preds = %2
  %13 = load ptr, ptr %3, align 8, !tbaa !3
  %14 = load ptr, ptr %4, align 8, !tbaa !8
  %15 = call i32 @Rtm_ObjRemLast2(ptr noundef %13, ptr noundef %14)
  br label %19

16:                                               ; preds = %2
  %17 = load ptr, ptr %4, align 8, !tbaa !8
  %18 = call i32 @Rtm_ObjRemLast1(ptr noundef %17)
  br label %19

19:                                               ; preds = %16, %12
  %20 = phi i32 [ %15, %12 ], [ %18, %16 ]
  store i32 %20, ptr %5, align 4, !tbaa !21
  %21 = load ptr, ptr %4, align 8, !tbaa !8
  %22 = load i32, ptr %21, align 8
  %23 = and i32 %22, 4095
  %24 = zext i32 %23 to i64
  %25 = trunc i64 %24 to i32
  %26 = icmp eq i32 %25, 10
  br i1 %26, label %27, label %30

27:                                               ; preds = %19
  %28 = load ptr, ptr %3, align 8, !tbaa !3
  %29 = load ptr, ptr %4, align 8, !tbaa !8
  call void @Rtm_ObjTransferToSmall(ptr noundef %28, ptr noundef %29)
  br label %30

30:                                               ; preds = %27, %19
  %31 = load i32, ptr %5, align 4, !tbaa !21
  call void @llvm.lifetime.end.p0(i64 4, ptr %5) #11
  ret i32 %31
}

; Function Attrs: inlinehint nounwind uwtable
define internal ptr @Rtm_ObjFanoutEdge(ptr noundef %0, i32 noundef %1) #5 {
  %3 = alloca ptr, align 8
  %4 = alloca i32, align 4
  store ptr %0, ptr %3, align 8, !tbaa !40
  store i32 %1, ptr %4, align 4, !tbaa !21
  %5 = load ptr, ptr %3, align 8, !tbaa !40
  %6 = getelementptr inbounds nuw %struct.Rtm_Obj_t_, ptr %5, i32 0, i32 5
  %7 = load ptr, ptr %3, align 8, !tbaa !40
  %8 = getelementptr inbounds nuw %struct.Rtm_Obj_t_, ptr %7, i32 0, i32 1
  %9 = load i32, ptr %8, align 8
  %10 = lshr i32 %9, 7
  %11 = and i32 %10, 255
  %12 = zext i32 %11 to i64
  %13 = trunc i64 %12 to i32
  %14 = load i32, ptr %4, align 4, !tbaa !21
  %15 = add nsw i32 %13, %14
  %16 = mul nsw i32 2, %15
  %17 = add nsw i32 %16, 1
  %18 = sext i32 %17 to i64
  %19 = getelementptr inbounds [0 x ptr], ptr %6, i64 0, i64 %18
  %20 = load ptr, ptr %19, align 8, !tbaa !45
  ret ptr %20
}

; Function Attrs: nounwind uwtable
define void @Rtm_ObjRetimeBwd(ptr noundef %0, ptr noundef %1) #0 {
  %3 = alloca ptr, align 8
  %4 = alloca ptr, align 8
  %5 = alloca ptr, align 8
  %6 = alloca i32, align 4
  store ptr %0, ptr %3, align 8, !tbaa !3
  store ptr %1, ptr %4, align 8, !tbaa !40
  call void @llvm.lifetime.start.p0(i64 8, ptr %5) #11
  call void @llvm.lifetime.start.p0(i64 4, ptr %6) #11
  store i32 0, ptr %6, align 4, !tbaa !21
  br label %7

7:                                                ; preds = %23, %2
  %8 = load i32, ptr %6, align 4, !tbaa !21
  %9 = load ptr, ptr %4, align 8, !tbaa !40
  %10 = getelementptr inbounds nuw %struct.Rtm_Obj_t_, ptr %9, i32 0, i32 4
  %11 = load i32, ptr %10, align 4, !tbaa !49
  %12 = icmp slt i32 %8, %11
  br i1 %12, label %13, label %17

13:                                               ; preds = %7
  %14 = load ptr, ptr %4, align 8, !tbaa !40
  %15 = load i32, ptr %6, align 4, !tbaa !21
  %16 = call ptr @Rtm_ObjFanoutEdge(ptr noundef %14, i32 noundef %15)
  store ptr %16, ptr %5, align 8, !tbaa !8
  br label %17

17:                                               ; preds = %13, %7
  %18 = phi i1 [ false, %7 ], [ true, %13 ]
  br i1 %18, label %19, label %26

19:                                               ; preds = %17
  %20 = load ptr, ptr %3, align 8, !tbaa !3
  %21 = load ptr, ptr %5, align 8, !tbaa !8
  %22 = call i32 @Rtm_ObjRemLast(ptr noundef %20, ptr noundef %21)
  br label %23

23:                                               ; preds = %19
  %24 = load i32, ptr %6, align 4, !tbaa !21
  %25 = add nsw i32 %24, 1
  store i32 %25, ptr %6, align 4, !tbaa !21
  br label %7, !llvm.loop !56

26:                                               ; preds = %17
  store i32 0, ptr %6, align 4, !tbaa !21
  br label %27

27:                                               ; preds = %46, %26
  %28 = load i32, ptr %6, align 4, !tbaa !21
  %29 = load ptr, ptr %4, align 8, !tbaa !40
  %30 = getelementptr inbounds nuw %struct.Rtm_Obj_t_, ptr %29, i32 0, i32 1
  %31 = load i32, ptr %30, align 8
  %32 = lshr i32 %31, 7
  %33 = and i32 %32, 255
  %34 = zext i32 %33 to i64
  %35 = trunc i64 %34 to i32
  %36 = icmp slt i32 %28, %35
  br i1 %36, label %37, label %41

37:                                               ; preds = %27
  %38 = load ptr, ptr %4, align 8, !tbaa !40
  %39 = load i32, ptr %6, align 4, !tbaa !21
  %40 = call ptr @Rtm_ObjEdge(ptr noundef %38, i32 noundef %39)
  store ptr %40, ptr %5, align 8, !tbaa !8
  br label %41

41:                                               ; preds = %37, %27
  %42 = phi i1 [ false, %27 ], [ true, %37 ]
  br i1 %42, label %43, label %49

43:                                               ; preds = %41
  %44 = load ptr, ptr %3, align 8, !tbaa !3
  %45 = load ptr, ptr %5, align 8, !tbaa !8
  call void @Rtm_ObjAddFirst(ptr noundef %44, ptr noundef %45, i32 noundef 3)
  br label %46

46:                                               ; preds = %43
  %47 = load i32, ptr %6, align 4, !tbaa !21
  %48 = add nsw i32 %47, 1
  store i32 %48, ptr %6, align 4, !tbaa !21
  br label %27, !llvm.loop !57

49:                                               ; preds = %41
  call void @llvm.lifetime.end.p0(i64 4, ptr %6) #11
  call void @llvm.lifetime.end.p0(i64 8, ptr %5) #11
  ret void
}