; Function Attrs: nounwind uwtable
define void @Rtm_ObjRetimeBwd(ptr noundef captures(none) %0, ptr noundef captures(none) %1) local_unnamed_addr #2 {
  %3 = getelementptr inbounds nuw i8, ptr %1, i64 20
  %4 = load i32, ptr %3, align 4, !tbaa !41
  %5 = icmp sgt i32 %4, 0
  br i1 %5, label %.lr.ph, label %.critedge.preheader

.lr.ph:                                           ; preds = %2
  %6 = getelementptr inbounds nuw i8, ptr %1, i64 24
  %7 = getelementptr inbounds nuw i8, ptr %1, i64 8
  %8 = getelementptr i8, ptr %0, i64 32
  br label %12

.critedge.preheader:                              ; preds = %Rtm_ObjRemLast.exit, %2
  %9 = getelementptr inbounds nuw i8, ptr %1, i64 8
  %10 = load i32, ptr %9, align 8
  %11 = and i32 %10, 32640
  %.not = icmp eq i32 %11, 0
  br i1 %.not, label %.critedge2, label %.lr.ph17

.lr.ph17:                                         ; preds = %.critedge.preheader
  %invariant.gep = getelementptr inbounds nuw i8, ptr %1, i64 32
  br label %.critedge

12:                                               ; preds = %.lr.ph, %Rtm_ObjRemLast.exit
  %.015 = phi i32 [ 0, %.lr.ph ], [ %68, %Rtm_ObjRemLast.exit ]
  %13 = load i32, ptr %7, align 8
  %14 = lshr i32 %13, 7
  %15 = and i32 %14, 255
  %16 = add nuw nsw i32 %15, %.015
  %17 = shl nuw nsw i32 %16, 1
  %18 = or disjoint i32 %17, 1
  %19 = zext nneg i32 %18 to i64
  %20 = getelementptr inbounds nuw [0 x ptr], ptr %6, i64 0, i64 %19
  %21 = load ptr, ptr %20, align 8, !tbaa !34
  %22 = load i32, ptr %21, align 8
  %23 = and i32 %22, 4095
  %24 = icmp samesign ugt i32 %23, 10
  br i1 %24, label %25, label %45

25:                                               ; preds = %12
  %.val7.i = load ptr, ptr %8, align 8, !tbaa !33
  %26 = lshr i32 %22, 12
  %27 = zext nneg i32 %26 to i64
  %28 = getelementptr inbounds nuw i32, ptr %.val7.i, i64 %27
  %29 = add nsw i32 %23, -1
  %30 = lshr i32 %29, 4
  %31 = zext nneg i32 %30 to i64
  %32 = getelementptr inbounds nuw i32, ptr %28, i64 %31
  %33 = load i32, ptr %32, align 4, !tbaa !29
  %34 = shl nuw nsw i32 %29, 1
  %35 = and i32 %34, 30
  %36 = lshr i32 %33, %35
  %37 = and i32 %36, 3
  %38 = shl nuw i32 %37, %35
  %39 = xor i32 %38, %33
  store i32 %39, ptr %32, align 4, !tbaa !29
  %40 = load i32, ptr %21, align 8
  %41 = add i32 %40, 4095
  %42 = and i32 %41, 4095
  %43 = and i32 %40, -4096
  %44 = or disjoint i32 %42, %43
  br label %58

45:                                               ; preds = %12
  %46 = lshr i32 %22, 12
  %47 = shl i32 %22, 1
  %48 = and i32 %47, 8190
  %49 = add nsw i32 %48, -2
  %50 = lshr i32 %46, %49
  %51 = and i32 %50, 3
  %52 = shl i32 %51, %49
  %.masked.i.i = and i32 %52, 1048575
  %53 = xor i32 %.masked.i.i, %46
  %54 = shl nuw i32 %53, 12
  %55 = add i32 %22, 4095
  %56 = and i32 %55, 4095
  %57 = or disjoint i32 %54, %56
  br label %58

58:                                               ; preds = %45, %25
  %storemerge.i = phi i32 [ %57, %45 ], [ %44, %25 ]
  store i32 %storemerge.i, ptr %21, align 8
  %59 = and i32 %storemerge.i, 4095
  %60 = icmp eq i32 %59, 10
  br i1 %60, label %61, label %Rtm_ObjRemLast.exit

61:                                               ; preds = %58
  %.val.i = load ptr, ptr %8, align 8, !tbaa !33
  %62 = lshr i32 %storemerge.i, 12
  %63 = zext nneg i32 %62 to i64
  %64 = getelementptr inbounds nuw i32, ptr %.val.i, i64 %63
  %65 = load i32, ptr %64, align 4, !tbaa !29
  %66 = shl i32 %65, 12
  %67 = or disjoint i32 %66, 10
  store i32 %67, ptr %21, align 8
  br label %Rtm_ObjRemLast.exit

Rtm_ObjRemLast.exit:                              ; preds = %58, %61
  %68 = add nuw nsw i32 %.015, 1
  %69 = load i32, ptr %3, align 4, !tbaa !41
  %70 = icmp slt i32 %68, %69
  br i1 %70, label %12, label %.critedge.preheader, !llvm.loop !51

.critedge:                                        ; preds = %.lr.ph17, %.critedge
  %indvars.iv = phi i64 [ 0, %.lr.ph17 ], [ %indvars.iv.next, %.critedge ]
  %gep.idx = shl nuw nsw i64 %indvars.iv, 4
  %gep = getelementptr inbounds nuw i8, ptr %invariant.gep, i64 %gep.idx
  tail call fastcc void @Rtm_ObjAddFirst(ptr noundef %0, ptr noundef nonnull %gep, i32 noundef 3)
  %indvars.iv.next = add nuw nsw i64 %indvars.iv, 1
  %71 = load i32, ptr %9, align 8
  %72 = lshr i32 %71, 7
  %73 = and i32 %72, 255
  %74 = zext nneg i32 %73 to i64
  %75 = icmp samesign ult i64 %indvars.iv.next, %74
  br i1 %75, label %.critedge, label %.critedge2, !llvm.loop !52

.critedge2:                                       ; preds = %.critedge, %.critedge.preheader
  ret void
}